; Function Attrs: mustprogress uwtable
define void @_ZN3net17QuicHeadersStream15OnDataAvailableEv(ptr noundef nonnull align 8 dereferenceable(816) %0) unnamed_addr #4 align 2 {
  %2 = alloca [1024 x i8], align 16
  %3 = alloca %struct.iovec, align 8
  %4 = alloca %"class.net::QuicTime", align 8
  call void @llvm.lifetime.start.p0(i64 1024, ptr nonnull %2) #23
  call void @llvm.lifetime.start.p0(i64 16, ptr nonnull %3) #23
  call void @llvm.lifetime.start.p0(i64 8, ptr nonnull %4) #23
  store i64 0, ptr %4, align 8
  %5 = getelementptr inbounds nuw i8, ptr %0, i64 432
  %6 = getelementptr inbounds nuw i8, ptr %3, i64 8
  %7 = getelementptr inbounds nuw i8, ptr %0, i64 40
  store ptr %2, ptr %3, align 8, !tbaa !356
  store i64 1024, ptr %6, align 8, !tbaa !354
  %8 = call noundef zeroext i1 @_ZNK3net19QuicStreamSequencer17GetReadableRegionEP5iovecPNS_8QuicTimeE(ptr noundef nonnull align 8 dereferenceable(169) %7, ptr noundef nonnull %3, ptr noundef nonnull %4)
  br i1 %8, label %.lr.ph, label %._crit_edge

.lr.ph:                                           ; preds = %1
  %9 = getelementptr inbounds nuw i8, ptr %0, i64 448
  br label %10

10:                                               ; preds = %.lr.ph, %16
  %.sroa.01.0.copyload.i = load i64, ptr %4, align 8, !tbaa !372
  %.sroa.0.0.copyload.i = load i64, ptr %5, align 8, !tbaa !372
  %11 = call i64 @llvm.smax.i64(i64 %.sroa.01.0.copyload.i, i64 %.sroa.0.0.copyload.i)
  store i64 %11, ptr %5, align 8, !tbaa !372
  %12 = load ptr, ptr %3, align 8, !tbaa !356
  %13 = load i64, ptr %6, align 8, !tbaa !354
  %14 = call noundef i64 @_ZN3net10SpdyFramer12ProcessInputEPKcm(ptr noundef nonnull align 8 dereferenceable(259) %9, ptr noundef %12, i64 noundef %13)
  %15 = load i64, ptr %6, align 8, !tbaa !354
  %.not = icmp eq i64 %14, %15
  br i1 %.not, label %16, label %._crit_edge

16:                                               ; preds = %10
  call void @_ZN3net19QuicStreamSequencer12MarkConsumedEm(ptr noundef nonnull align 8 dereferenceable(169) %7, i64 noundef %14)
  store ptr %2, ptr %3, align 8, !tbaa !356
  store i64 1024, ptr %6, align 8, !tbaa !354
  %17 = call noundef zeroext i1 @_ZNK3net19QuicStreamSequencer17GetReadableRegionEP5iovecPNS_8QuicTimeE(ptr noundef nonnull align 8 dereferenceable(169) %7, ptr noundef nonnull %3, ptr noundef nonnull %4)
  br i1 %17, label %10, label %._crit_edge, !llvm.loop !373

._crit_edge:                                      ; preds = %10, %16, %1
  call void @llvm.lifetime.end.p0(i64 8, ptr nonnull %4) #23
  call void @llvm.lifetime.end.p0(i64 16, ptr nonnull %3) #23
  call void @llvm.lifetime.end.p0(i64 1024, ptr nonnull %2) #23
  ret void
}